target datalayout = "e-m:e-p270:32:32-p271:32:32-p272:64:64-i64:64-i128:128-f80:128-n8:16:32:64-S128"
target triple = "x86_64-pc-linux-gnu"

%struct._Node = type { %union.anon.35 }
%union.anon.35 = type { %struct.BagNode }
%struct.BagNode = type { i32, i32, ptr, ptr, i32, %union.anon.37, i32, i32, i32, i32, i32 }
%union.anon.37 = type { %struct.anon.40 }
%struct.anon.40 = type { ptr, ptr }
%struct.anon.36 = type { i32, i32, ptr, ptr }
%struct.ConsAltNode = type { i32, i32, ptr, ptr, ptr }
%struct.anon.38 = type { i32, i32, i32, i32 }
%struct.AnchorNode = type { i32, i32, ptr, ptr, i32, i32, i32, i32, ptr }
%struct.CallNode = type { i32, i32, ptr, ptr, i32, i32, ptr, ptr, i32 }

; Function Attrs: nounwind uwtable
define internal void @tune_call2_call(ptr noundef %0) #0 {
  %2 = alloca ptr, align 8
  %3 = alloca ptr, align 8
  %4 = alloca ptr, align 8
  %5 = alloca ptr, align 8
  store ptr %0, ptr %2, align 8, !tbaa !47
  %6 = load ptr, ptr %2, align 8, !tbaa !47
  %7 = getelementptr inbounds nuw %struct._Node, ptr %6, i32 0, i32 0
  %8 = getelementptr inbounds nuw %struct.anon.36, ptr %7, i32 0, i32 0
  %9 = load i32, ptr %8, align 8, !tbaa !32
  switch i32 %9, label %149 [
    i32 7, label %10
    i32 8, label %10
    i32 4, label %23
    i32 6, label %28
    i32 5, label %40
    i32 9, label %109
  ]

10:                                               ; preds = %1, %1
  br label %11

11:                                               ; preds = %16, %10
  %12 = load ptr, ptr %2, align 8, !tbaa !47
  %13 = getelementptr inbounds nuw %struct._Node, ptr %12, i32 0, i32 0
  %14 = getelementptr inbounds nuw %struct.ConsAltNode, ptr %13, i32 0, i32 3
  %15 = load ptr, ptr %14, align 8, !tbaa !32
  call void @tune_call2_call(ptr noundef %15)
  br label %16

16:                                               ; preds = %11
  %17 = load ptr, ptr %2, align 8, !tbaa !47
  %18 = getelementptr inbounds nuw %struct._Node, ptr %17, i32 0, i32 0
  %19 = getelementptr inbounds nuw %struct.ConsAltNode, ptr %18, i32 0, i32 4
  %20 = load ptr, ptr %19, align 8, !tbaa !32
  store ptr %20, ptr %2, align 8, !tbaa !47
  %21 = icmp ne ptr %20, null
  br i1 %21, label %11, label %22, !llvm.loop !210

22:                                               ; preds = %16
  br label %150

23:                                               ; preds = %1
  %24 = load ptr, ptr %2, align 8, !tbaa !47
  %25 = getelementptr inbounds nuw %struct._Node, ptr %24, i32 0, i32 0
  %26 = getelementptr inbounds nuw %struct.anon.36, ptr %25, i32 0, i32 3
  %27 = load ptr, ptr %26, align 8, !tbaa !32
  call void @tune_call2_call(ptr noundef %27)
  br label %150

28:                                               ; preds = %1
  %29 = load ptr, ptr %2, align 8, !tbaa !47
  %30 = getelementptr inbounds nuw %struct._Node, ptr %29, i32 0, i32 0
  %31 = getelementptr inbounds nuw %struct.AnchorNode, ptr %30, i32 0, i32 4
  %32 = load i32, ptr %31, align 8, !tbaa !32
  %33 = icmp slt i32 %32, 16
  br i1 %33, label %34, label %39

34:                                               ; preds = %28
  %35 = load ptr, ptr %2, align 8, !tbaa !47
  %36 = getelementptr inbounds nuw %struct._Node, ptr %35, i32 0, i32 0
  %37 = getelementptr inbounds nuw %struct.anon.36, ptr %36, i32 0, i32 3
  %38 = load ptr, ptr %37, align 8, !tbaa !32
  call void @tune_call2_call(ptr noundef %38)
  br label %39

39:                                               ; preds = %34, %28
  br label %150

40:                                               ; preds = %1
  call void @llvm.lifetime.start.p0(i64 8, ptr %3) #9
  %41 = load ptr, ptr %2, align 8, !tbaa !47
  %42 = getelementptr inbounds nuw %struct._Node, ptr %41, i32 0, i32 0
  store ptr %42, ptr %3, align 8, !tbaa !15
  %43 = load ptr, ptr %3, align 8, !tbaa !15
  %44 = getelementptr inbounds nuw %struct.BagNode, ptr %43, i32 0, i32 4
  %45 = load i32, ptr %44, align 8, !tbaa !156
  %46 = icmp eq i32 %45, 0
  br i1 %46, label %47, label %70

47:                                               ; preds = %40
  %48 = load ptr, ptr %2, align 8, !tbaa !47
  %49 = getelementptr inbounds nuw %struct._Node, ptr %48, i32 0, i32 0
  %50 = getelementptr inbounds nuw %struct.anon.36, ptr %49, i32 0, i32 1
  %51 = load i32, ptr %50, align 4, !tbaa !32
  %52 = and i32 %51, 8
  %53 = icmp ne i32 %52, 0
  br i1 %53, label %69, label %54

54:                                               ; preds = %47
  %55 = load ptr, ptr %2, align 8, !tbaa !47
  %56 = getelementptr inbounds nuw %struct._Node, ptr %55, i32 0, i32 0
  %57 = getelementptr inbounds nuw %struct.anon.36, ptr %56, i32 0, i32 1
  %58 = load i32, ptr %57, align 4, !tbaa !32
  %59 = or i32 %58, 8
  store i32 %59, ptr %57, align 4, !tbaa !32
  %60 = load ptr, ptr %2, align 8, !tbaa !47
  %61 = getelementptr inbounds nuw %struct._Node, ptr %60, i32 0, i32 0
  %62 = getelementptr inbounds nuw %struct.anon.36, ptr %61, i32 0, i32 3
  %63 = load ptr, ptr %62, align 8, !tbaa !32
  call void @tune_call2_call(ptr noundef %63)
  %64 = load ptr, ptr %2, align 8, !tbaa !47
  %65 = getelementptr inbounds nuw %struct._Node, ptr %64, i32 0, i32 0
  %66 = getelementptr inbounds nuw %struct.anon.36, ptr %65, i32 0, i32 1
  %67 = load i32, ptr %66, align 4, !tbaa !32
  %68 = and i32 %67, -9
  store i32 %68, ptr %66, align 4, !tbaa !32
  br label %69

69:                                               ; preds = %54, %47
  br label %108

70:                                               ; preds = %40
  %71 = load ptr, ptr %3, align 8, !tbaa !15
  %72 = getelementptr inbounds nuw %struct.BagNode, ptr %71, i32 0, i32 4
  %73 = load i32, ptr %72, align 8, !tbaa !156
  %74 = icmp eq i32 %73, 3
  br i1 %74, label %75, label %102

75:                                               ; preds = %70
  %76 = load ptr, ptr %2, align 8, !tbaa !47
  %77 = getelementptr inbounds nuw %struct._Node, ptr %76, i32 0, i32 0
  %78 = getelementptr inbounds nuw %struct.anon.36, ptr %77, i32 0, i32 3
  %79 = load ptr, ptr %78, align 8, !tbaa !32
  call void @tune_call2_call(ptr noundef %79)
  %80 = load ptr, ptr %3, align 8, !tbaa !15
  %81 = getelementptr inbounds nuw %struct.BagNode, ptr %80, i32 0, i32 5
  %82 = getelementptr inbounds nuw %struct.anon.40, ptr %81, i32 0, i32 0
  %83 = load ptr, ptr %82, align 8, !tbaa !32
  %84 = icmp ne ptr %83, null
  br i1 %84, label %85, label %90

85:                                               ; preds = %75
  %86 = load ptr, ptr %3, align 8, !tbaa !15
  %87 = getelementptr inbounds nuw %struct.BagNode, ptr %86, i32 0, i32 5
  %88 = getelementptr inbounds nuw %struct.anon.40, ptr %87, i32 0, i32 0
  %89 = load ptr, ptr %88, align 8, !tbaa !32
  call void @tune_call2_call(ptr noundef %89)
  br label %90

90:                                               ; preds = %85, %75
  %91 = load ptr, ptr %3, align 8, !tbaa !15
  %92 = getelementptr inbounds nuw %struct.BagNode, ptr %91, i32 0, i32 5
  %93 = getelementptr inbounds nuw %struct.anon.40, ptr %92, i32 0, i32 1
  %94 = load ptr, ptr %93, align 8, !tbaa !32
  %95 = icmp ne ptr %94, null
  br i1 %95, label %96, label %101

96:                                               ; preds = %90
  %97 = load ptr, ptr %3, align 8, !tbaa !15
  %98 = getelementptr inbounds nuw %struct.BagNode, ptr %97, i32 0, i32 5
  %99 = getelementptr inbounds nuw %struct.anon.40, ptr %98, i32 0, i32 1
  %100 = load ptr, ptr %99, align 8, !tbaa !32
  call void @tune_call2_call(ptr noundef %100)
  br label %101

101:                                              ; preds = %96, %90
  br label %107

102:                                              ; preds = %70
  %103 = load ptr, ptr %2, align 8, !tbaa !47
  %104 = getelementptr inbounds nuw %struct._Node, ptr %103, i32 0, i32 0
  %105 = getelementptr inbounds nuw %struct.anon.36, ptr %104, i32 0, i32 3
  %106 = load ptr, ptr %105, align 8, !tbaa !32
  call void @tune_call2_call(ptr noundef %106)
  br label %107

107:                                              ; preds = %102, %101
  br label %108

108:                                              ; preds = %107, %69
  call void @llvm.lifetime.end.p0(i64 8, ptr %3) #9
  br label %150

109:                                              ; preds = %1
  %110 = load ptr, ptr %2, align 8, !tbaa !47
  %111 = getelementptr inbounds nuw %struct._Node, ptr %110, i32 0, i32 0
  %112 = getelementptr inbounds nuw %struct.anon.36, ptr %111, i32 0, i32 1
  %113 = load i32, ptr %112, align 4, !tbaa !32
  %114 = and i32 %113, 8
  %115 = icmp ne i32 %114, 0
  br i1 %115, label %148, label %116

116:                                              ; preds = %109
  %117 = load ptr, ptr %2, align 8, !tbaa !47
  %118 = getelementptr inbounds nuw %struct._Node, ptr %117, i32 0, i32 0
  %119 = getelementptr inbounds nuw %struct.anon.36, ptr %118, i32 0, i32 1
  %120 = load i32, ptr %119, align 4, !tbaa !32
  %121 = or i32 %120, 8
  store i32 %121, ptr %119, align 4, !tbaa !32
  call void @llvm.lifetime.start.p0(i64 8, ptr %4) #9
  %122 = load ptr, ptr %2, align 8, !tbaa !47
  %123 = getelementptr inbounds nuw %struct._Node, ptr %122, i32 0, i32 0
  store ptr %123, ptr %4, align 8, !tbaa !15
  call void @llvm.lifetime.start.p0(i64 8, ptr %5) #9
  %124 = load ptr, ptr %4, align 8, !tbaa !15
  %125 = getelementptr inbounds nuw %struct.CallNode, ptr %124, i32 0, i32 3
  %126 = load ptr, ptr %125, align 8, !tbaa !208
  store ptr %126, ptr %5, align 8, !tbaa !47
  %127 = load ptr, ptr %4, align 8, !tbaa !15
  %128 = getelementptr inbounds nuw %struct.CallNode, ptr %127, i32 0, i32 8
  %129 = load i32, ptr %128, align 8, !tbaa !211
  %130 = add nsw i32 %129, 1
  store i32 %130, ptr %128, align 8, !tbaa !211
  %131 = load ptr, ptr %5, align 8, !tbaa !47
  %132 = getelementptr inbounds nuw %struct._Node, ptr %131, i32 0, i32 0
  %133 = getelementptr inbounds nuw %struct.anon.36, ptr %132, i32 0, i32 1
  %134 = load i32, ptr %133, align 4, !tbaa !32
  %135 = or i32 %134, 128
  store i32 %135, ptr %133, align 4, !tbaa !32
  %136 = load ptr, ptr %5, align 8, !tbaa !47
  %137 = getelementptr inbounds nuw %struct._Node, ptr %136, i32 0, i32 0
  %138 = getelementptr inbounds nuw %struct.BagNode, ptr %137, i32 0, i32 5
  %139 = getelementptr inbounds nuw %struct.anon.38, ptr %138, i32 0, i32 2
  %140 = load i32, ptr %139, align 8, !tbaa !32
  %141 = add nsw i32 %140, 1
  store i32 %141, ptr %139, align 8, !tbaa !32
  %142 = load ptr, ptr %5, align 8, !tbaa !47
  call void @tune_call2_call(ptr noundef %142)
  call void @llvm.lifetime.end.p0(i64 8, ptr %5) #9
  call void @llvm.lifetime.end.p0(i64 8, ptr %4) #9
  %143 = load ptr, ptr %2, align 8, !tbaa !47
  %144 = getelementptr inbounds nuw %struct._Node, ptr %143, i32 0, i32 0
  %145 = getelementptr inbounds nuw %struct.anon.36, ptr %144, i32 0, i32 1
  %146 = load i32, ptr %145, align 4, !tbaa !32
  %147 = and i32 %146, -9
  store i32 %147, ptr %145, align 4, !tbaa !32
  br label %148

148:                                              ; preds = %116, %109
  br label %150

149:                                              ; preds = %1
  br label %150

150:                                              ; preds = %149, %148, %108, %39, %23, %22
  ret void
}